; Function Attrs: nounwind uwtable
define i64 @b2Shape_GetParentChain(i64 %0) local_unnamed_addr #0 {
  %.sroa.2.0.extract.shift = lshr i64 %0, 32
  %2 = trunc nuw i64 %.sroa.2.0.extract.shift to i32
  %3 = and i32 %2, 65535
  %4 = tail call ptr @b2GetWorld(i32 noundef %3) #10
  %5 = getelementptr i8, ptr %4, i64 1256
  %.val = load ptr, ptr %5, align 8, !tbaa !14
  %6 = shl i64 %0, 32
  %sext.i = add i64 %6, -4294967296
  %7 = ashr exact i64 %sext.i, 32
  %8 = getelementptr inbounds %struct.b2Shape, ptr %.val, i64 %7
  %9 = getelementptr inbounds nuw i8, ptr %8, i64 20
  %10 = load i32, ptr %9, align 4, !tbaa !171
  %11 = icmp eq i32 %10, 4
  br i1 %11, label %12, label %.thread

12:                                               ; preds = %1
  %13 = getelementptr inbounds nuw i8, ptr %8, i64 164
  %14 = load i32, ptr %13, align 4, !tbaa !168
  %.not = icmp eq i32 %14, -1
  br i1 %.not, label %.thread, label %15

15:                                               ; preds = %12
  %16 = getelementptr inbounds nuw i8, ptr %4, i64 1272
  %.val11 = load ptr, ptr %16, align 8, !tbaa !10
  %17 = sext i32 %14 to i64
  %18 = add nuw nsw i32 %14, 1
  %19 = getelementptr inbounds %struct.b2ChainShape, ptr %.val11, i64 %17, i32 7
  %20 = load i16, ptr %19, align 8, !tbaa !125
  %21 = zext i16 %20 to i64
  %22 = shl nuw i64 %21, 48
  %23 = and i64 %0, 281470681743360
  %24 = zext i32 %18 to i64
  br label %.thread

.thread:                                          ; preds = %12, %1, %15
  %.sroa.09.1 = phi i64 [ %24, %15 ], [ 0, %1 ], [ 0, %12 ]
  %.sroa.3.1 = phi i64 [ %23, %15 ], [ 0, %1 ], [ 0, %12 ]
  %.sroa.5.1 = phi i64 [ %22, %15 ], [ 0, %1 ], [ 0, %12 ]
  %.sroa.3.0.insert.insert = or disjoint i64 %.sroa.3.1, %.sroa.09.1
  %.sroa.09.0.insert.insert = or disjoint i64 %.sroa.3.0.insert.insert, %.sroa.5.1
  ret i64 %.sroa.09.0.insert.insert
}